; Function Attrs: null_pointer_is_valid sspstrong uwtable
define internal fastcc range(i32 6, 0) i32 @dissect_rdm_pd_proxied_devices(ptr noundef %0, ptr noundef %1, i8 noundef zeroext %2, i8 noundef zeroext %3) unnamed_addr #1 {
  %cond = icmp eq i8 %2, 33
  %5 = icmp ugt i8 %3, 5
  %or.cond = and i1 %cond, %5
  br i1 %or.cond, label %.preheader, label %.loopexit

.preheader:                                       ; preds = %4, %.preheader
  %.1 = phi i32 [ %8, %.preheader ], [ 23, %4 ]
  %.0 = phi i8 [ %9, %.preheader ], [ %3, %4 ]
  %6 = load i32, ptr @hf_rdm_pd_proxied_devices_uid, align 4
  %7 = tail call ptr @proto_tree_add_item(ptr noundef %1, i32 noundef %6, ptr noundef %0, i32 noundef %.1, i32 noundef 6, i32 noundef 0)
  %8 = add nuw nsw i32 %.1, 6
  %9 = add i8 %.0, -6
  %.old2 = icmp ugt i8 %9, 5
  br i1 %.old2, label %.preheader, label %.loopexit

.loopexit:                                        ; preds = %.preheader, %4
  %.09 = phi i32 [ 23, %4 ], [ %8, %.preheader ]
  ret i32 %.09
}